; ModuleID = '15/1495.c'
source_filename = "15/1495.c"
target datalayout = "e-m:e-p270:32:32-p271:32:32-p272:64:64-i64:64-f80:128-n8:16:32:64-S128"
target triple = "x86_64-pc-linux-gnu"

@.str = private unnamed_addr constant [3 x i8] c"%d\00", align 1

; Function Attrs: noinline nounwind uwtable
define dso_local i32 @main() #0 {
  %1 = alloca i32, align 4
  %2 = alloca i32, align 4
  %3 = alloca [1000 x [1000 x i32]], align 16
  %4 = alloca i32, align 4
  %5 = alloca i32, align 4
  %6 = alloca i32, align 4
  %7 = alloca i32, align 4
  %8 = alloca i32, align 4
  %9 = alloca i32, align 4
  %10 = alloca i32, align 4
  %11 = alloca i32, align 4
  %12 = alloca i32, align 4
  %13 = alloca i32, align 4
  %14 = alloca i32, align 4
  store i32 0, i32* %1, align 4
  %15 = call i32 (i8*, ...) @__isoc99_scanf(i8* getelementptr inbounds ([3 x i8], [3 x i8]* @.str, i64 0, i64 0), i32* %2)
  store i32 0, i32* %4, align 4
  br label %16

16:                                               ; preds = %37, %0
  %17 = load i32, i32* %4, align 4
  %18 = load i32, i32* %2, align 4
  %19 = icmp slt i32 %17, %18
  br i1 %19, label %20, label %40

20:                                               ; preds = %16
  store i32 0, i32* %5, align 4
  br label %21

21:                                               ; preds = %33, %20
  %22 = load i32, i32* %5, align 4
  %23 = load i32, i32* %2, align 4
  %24 = icmp slt i32 %22, %23
  br i1 %24, label %25, label %36

25:                                               ; preds = %21
  %26 = load i32, i32* %4, align 4
  %27 = sext i32 %26 to i64
  %28 = getelementptr inbounds [1000 x [1000 x i32]], [1000 x [1000 x i32]]* %3, i64 0, i64 %27
  %29 = load i32, i32* %5, align 4
  %30 = sext i32 %29 to i64
  %31 = getelementptr inbounds [1000 x i32], [1000 x i32]* %28, i64 0, i64 %30
  %32 = call i32 (i8*, ...) @__isoc99_scanf(i8* getelementptr inbounds ([3 x i8], [3 x i8]* @.str, i64 0, i64 0), i32* %31)
  br label %33

33:                                               ; preds = %25
  %34 = load i32, i32* %5, align 4
  %35 = add nsw i32 %34, 1
  store i32 %35, i32* %5, align 4
  br label %21

36:                                               ; preds = %21
  br label %37

37:                                               ; preds = %36
  %38 = load i32, i32* %4, align 4
  %39 = add nsw i32 %38, 1
  store i32 %39, i32* %4, align 4
  br label %16

40:                                               ; preds = %16
  store i32 0, i32* %6, align 4
  store i32 0, i32* %7, align 4
  br label %41

41:                                               ; preds = %77, %40
  %42 = load i32, i32* %7, align 4
  %43 = load i32, i32* %2, align 4
  %44 = icmp slt i32 %42, %43
  br i1 %44, label %45, label %80

45:                                               ; preds = %41
  store i32 0, i32* %8, align 4
  br label %46

46:                                               ; preds = %73, %45
  %47 = load i32, i32* %8, align 4
  %48 = load i32, i32* %2, align 4
  %49 = icmp slt i32 %47, %48
  br i1 %49, label %50, label %76

50:                                               ; preds = %46
  %51 = load i32, i32* %7, align 4
  %52 = sext i32 %51 to i64
  %53 = getelementptr inbounds [1000 x [1000 x i32]], [1000 x [1000 x i32]]* %3, i64 0, i64 %52
  %54 = load i32, i32* %8, align 4
  %55 = sext i32 %54 to i64
  %56 = getelementptr inbounds [1000 x i32], [1000 x i32]* %53, i64 0, i64 %55
  %57 = load i32, i32* %56, align 4
  %58 = icmp eq i32 %57, 0
  br i1 %58, label %59, label %72

59:                                               ; preds = %50
  %60 = load i32, i32* %7, align 4
  %61 = sext i32 %60 to i64
  %62 = getelementptr inbounds [1000 x [1000 x i32]], [1000 x [1000 x i32]]* %3, i64 0, i64 %61
  %63 = load i32, i32* %8, align 4
  %64 = add nsw i32 %63, 1
  %65 = sext i32 %64 to i64
  %66 = getelementptr inbounds [1000 x i32], [1000 x i32]* %62, i64 0, i64 %65
  %67 = load i32, i32* %66, align 4
  %68 = icmp eq i32 %67, 0
  br i1 %68, label %69, label %72

69:                                               ; preds = %59
  %70 = load i32, i32* %6, align 4
  %71 = add nsw i32 %70, 1
  store i32 %71, i32* %6, align 4
  br label %72

72:                                               ; preds = %69, %59, %50
  br label %73

73:                                               ; preds = %72
  %74 = load i32, i32* %8, align 4
  %75 = add nsw i32 %74, 1
  store i32 %75, i32* %8, align 4
  br label %46

76:                                               ; preds = %46
  br label %77

77:                                               ; preds = %76
  %78 = load i32, i32* %7, align 4
  %79 = add nsw i32 %78, 1
  store i32 %79, i32* %7, align 4
  br label %41

80:                                               ; preds = %41
  %81 = load i32, i32* %6, align 4
  %82 = sub nsw i32 %81, 2
  %83 = sdiv i32 %82, 2
  store i32 %83, i32* %9, align 4
  store i32 0, i32* %10, align 4
  store i32 0, i32* %11, align 4
  br label %84

84:                                               ; preds = %120, %80
  %85 = load i32, i32* %11, align 4
  %86 = load i32, i32* %2, align 4
  %87 = icmp slt i32 %85, %86
  br i1 %87, label %88, label %123

88:                                               ; preds = %84
  store i32 0, i32* %12, align 4
  br label %89

89:                                               ; preds = %116, %88
  %90 = load i32, i32* %12, align 4
  %91 = load i32, i32* %2, align 4
  %92 = icmp slt i32 %90, %91
  br i1 %92, label %93, label %119

93:                                               ; preds = %89
  %94 = load i32, i32* %12, align 4
  %95 = sext i32 %94 to i64
  %96 = getelementptr inbounds [1000 x [1000 x i32]], [1000 x [1000 x i32]]* %3, i64 0, i64 %95
  %97 = load i32, i32* %11, align 4
  %98 = sext i32 %97 to i64
  %99 = getelementptr inbounds [1000 x i32], [1000 x i32]* %96, i64 0, i64 %98
  %100 = load i32, i32* %99, align 4
  %101 = icmp eq i32 %100, 0
  br i1 %101, label %102, label %115

102:                                              ; preds = %93
  %103 = load i32, i32* %12, align 4
  %104 = add nsw i32 %103, 1
  %105 = sext i32 %104 to i64
  %106 = getelementptr inbounds [1000 x [1000 x i32]], [1000 x [1000 x i32]]* %3, i64 0, i64 %105
  %107 = load i32, i32* %11, align 4
  %108 = sext i32 %107 to i64
  %109 = getelementptr inbounds [1000 x i32], [1000 x i32]* %106, i64 0, i64 %108
  %110 = load i32, i32* %109, align 4
  %111 = icmp eq i32 %110, 0
  br i1 %111, label %112, label %115

112:                                              ; preds = %102
  %113 = load i32, i32* %10, align 4
  %114 = add nsw i32 %113, 1
  store i32 %114, i32* %10, align 4
  br label %115

115:                                              ; preds = %112, %102, %93
  br label %116

116:                                              ; preds = %115
  %117 = load i32, i32* %12, align 4
  %118 = add nsw i32 %117, 1
  store i32 %118, i32* %12, align 4
  br label %89

119:                                              ; preds = %89
  br label %120

120:                                              ; preds = %119
  %121 = load i32, i32* %11, align 4
  %122 = add nsw i32 %121, 1
  store i32 %122, i32* %11, align 4
  br label %84

123:                                              ; preds = %84
  %124 = load i32, i32* %10, align 4
  %125 = sub nsw i32 %124, 2
  %126 = sdiv i32 %125, 2
  store i32 %126, i32* %13, align 4
  %127 = load i32, i32* %9, align 4
  %128 = load i32, i32* %13, align 4
  %129 = mul nsw i32 %127, %128
  store i32 %129, i32* %14, align 4
  %130 = load i32, i32* %14, align 4
  %131 = call i32 (i8*, ...) @printf(i8* getelementptr inbounds ([3 x i8], [3 x i8]* @.str, i64 0, i64 0), i32 %130)
  ret i32 0
}

declare dso_local i32 @__isoc99_scanf(i8*, ...) #1

declare dso_local i32 @printf(i8*, ...) #1


!llvm.module.flags = !{!0}
!llvm.ident = !{!1}

!0 = !{i32 1, !"wchar_size", i32 4}
!1 = !{!"clang version 10.0.0-4ubuntu1 "}
